EXPORTS
    EndTime @1
    GetMicroSeconds @2
    InitTime @3
    JACK_METADATA_CONNECTED @4 DATA
    JACK_METADATA_HARDWARE @5 DATA
    JACK_METADATA_ICON_LARGE @6 DATA
    JACK_METADATA_ICON_SMALL @7 DATA
    JACK_METADATA_PORT_GROUP @8 DATA
    JACK_METADATA_PRETTY_NAME @9 DATA
    JackSleep @10
    _Z23jackctl_driver_get_descP14jackctl_driver @11
    _ZN14JackDriverInfo4OpenEP18jack_driver_desc_tPN4Jack16JackLockedEngineEPNS2_16JackWinSemaphoreEPK7_JSList @12
    _ZN14JackDriverInfoC1Ev @13
    _ZN14JackDriverInfoD1Ev @14
    _ZN14JackDriverInfoD2Ev @15
    _ZN4Jack10JackClient10DeactivateEv @16
    _ZN4Jack10JackClient10DummyCycleEv @17
    _ZN4Jack10JackClient10OnShutdownEPFvPvES1_ @18
    _ZN4Jack10JackClient10PortIsMineEj @19
    _ZN4Jack10JackClient10PortRenameEjPKc @20
    _ZN4Jack10JackClient10SignalSyncEv @21
    _ZN4Jack10JackClient11ActivateAuxEv @22
    _ZN4Jack10JackClient11CycleSignalEi @23
    _ZN4Jack10JackClient11GetThreadIDEv @24
    _ZN4Jack10JackClient11PortConnectEPKcS2_ @25
    _ZN4Jack10JackClient11StartThreadEv @26
    _ZN4Jack10JackClient12ClientNotifyEiPKciiS2_ii @27
    _ZN4Jack10JackClient12CycleWaitAuxEv @28
    _ZN4Jack10JackClient12PortRegisterEPKcS2_mm @29
    _ZN4Jack10JackClient12SessionReplyEP19_jack_session_event @30
    _ZN4Jack10JackClient12SetFreeWheelEi @31
    _ZN4Jack10JackClient13ExecuteThreadEv @32
    _ZN4Jack10JackClient13SessionNotifyEPKc20JackSessionEventTypeS2_ @33
    _ZN4Jack10JackClient13SetBufferSizeEj @34
    _ZN4Jack10JackClient13SetupRealTimeEv @35
    _ZN4Jack10JackClient13TransportStopEv @36
    _ZN4Jack10JackClient14CycleSignalAuxEi @37
    _ZN4Jack10JackClient14OnInfoShutdownEPFv10JackStatusPKcPvES4_ @38
    _ZN4Jack10JackClient14PortDisconnectEPKcS2_ @39
    _ZN4Jack10JackClient14PortDisconnectEj @40
    _ZN4Jack10JackClient14PortUnRegisterEj @41
    _ZN4Jack10JackClient14SetSyncTimeoutEy @42
    _ZN4Jack10JackClient14TransportQueryEP14_jack_position @43
    _ZN4Jack10JackClient14TransportStartEv @44
    _ZN4Jack10JackClient15ClientNotifyImpEiPKciiS2_ii @45
    _ZN4Jack10JackClient15ReleaseTimebaseEv @46
    _ZN4Jack10JackClient15SetInitCallbackEPFvPvES1_ @47
    _ZN4Jack10JackClient15SetSyncCallbackEPFi22jack_transport_state_tP14_jack_positionPvES4_ @48
    _ZN4Jack10JackClient15SetXRunCallbackEPFiPvES1_ @49
    _ZN4Jack10JackClient15SetupDriverSyncEb @50
    _ZN4Jack10JackClient15TransportLocateEj @51
    _ZN4Jack10JackClient16CallSyncCallbackEv @52
    _ZN4Jack10JackClient16SetProcessThreadEPFPvS1_ES1_ @53
    _ZN4Jack10JackClient17ReserveClientNameEPKcS2_ @54
    _ZN4Jack10JackClient18InternalClientLoadEPKc11JackOptionsP10JackStatusP14jack_varargs_t @55
    _ZN4Jack10JackClient18SetLatencyCallbackEPFv23JackLatencyCallbackModePvES2_ @56
    _ZN4Jack10JackClient18SetProcessCallbackEPFijPvES1_ @57
    _ZN4Jack10JackClient18SetSessionCallbackEPFvP19_jack_session_eventPvES3_ @58
    _ZN4Jack10JackClient19CallProcessCallbackEv @59
    _ZN4Jack10JackClient19CallSyncCallbackAuxEv @60
    _ZN4Jack10JackClient19GetClientNameByUUIDEPKc @61
    _ZN4Jack10JackClient19SetTimebaseCallbackEiPFv22jack_transport_state_tjP14_jack_positioniPvES4_ @62
    _ZN4Jack10JackClient19TransportRepositionEPK14_jack_position @63
    _ZN4Jack10JackClient20CallTimebaseCallbackEv @64
    _ZN4Jack10JackClient20GetUUIDForClientNameEPKc @65
    _ZN4Jack10JackClient20InternalClientHandleEPKcP10JackStatus @66
    _ZN4Jack10JackClient20InternalClientUnloadEiP10JackStatus @67
    _ZN4Jack10JackClient20SetFreewheelCallbackEPFviPvES1_ @68
    _ZN4Jack10JackClient21ComputeTotalLatenciesEv @69
    _ZN4Jack10JackClient21GetInternalClientNameEi @70
    _ZN4Jack10JackClient21HandleLatencyCallbackEi @71
    _ZN4Jack10JackClient21SetBufferSizeCallbackEPFijPvES1_ @72
    _ZN4Jack10JackClient21SetGraphOrderCallbackEPFiPvES1_ @73
    _ZN4Jack10JackClient21SetPortRenameCallbackEPFvjPKcS2_PvES3_ @74
    _ZN4Jack10JackClient21SetSampleRateCallbackEPFijPvES1_ @75
    _ZN4Jack10JackClient22SetPortConnectCallbackEPFvjjiPvES1_ @76
    _ZN4Jack10JackClient23CallTimebaseCallbackAuxEv @77
    _ZN4Jack10JackClient24ClientHasSessionCallbackEPKc @78
    _ZN4Jack10JackClient24GetCurrentTransportFrameEv @79
    _ZN4Jack10JackClient27SetPortRegistrationCallbackEPFvjiPvES1_ @80
    _ZN4Jack10JackClient29SetClientRegistrationCallbackEPFvPKciPvES3_ @81
    _ZN4Jack10JackClient3EndEv @82
    _ZN4Jack10JackClient4InitEv @83
    _ZN4Jack10JackClient5CloseEv @84
    _ZN4Jack10JackClient5ErrorEv @85
    _ZN4Jack10JackClient7ExecuteEv @86
    _ZN4Jack10JackClient7InitAuxEv @87
    _ZN4Jack10JackClient8ActivateEv @88
    _ZN4Jack10JackClient8IsActiveEv @89
    _ZN4Jack10JackClient8ShutDownE10JackStatusPKc @90
    _ZN4Jack10JackClient8WaitSyncEv @91
    _ZN4Jack10JackClient9CycleWaitEv @92
    _ZN4Jack10JackClientC1EPNS_16JackWinSemaphoreE @93
    _ZN4Jack10JackClientC1Ev @94
    _ZN4Jack10JackClientC2EPNS_16JackWinSemaphoreE @95
    _ZN4Jack10JackClientC2Ev @96
    _ZN4Jack10JackClientD0Ev @97
    _ZN4Jack10JackClientD1Ev @98
    _ZN4Jack10JackClientD2Ev @99
    _ZN4Jack10JackDriver10InitializeEv @100
    _ZN4Jack10JackDriver10NotifyXRunEyf @101
    _ZN4Jack10JackDriver10StopSlavesEv @102
    _ZN4Jack10JackDriver11ProcessReadEv @103
    _ZN4Jack10JackDriver11RemoveSlaveEPNS_19JackDriverInterfaceE @104
    _ZN4Jack10JackDriver11StartSlavesEv @105
    _ZN4Jack10JackDriver12ClientNotifyEiPKciiS2_ii @106
    _ZN4Jack10JackDriver12CycleIncTimeEv @107
    _ZN4Jack10JackDriver12ProcessWriteEv @108
    _ZN4Jack10JackDriver12ResumeRefNumEv @109
    _ZN4Jack10JackDriver13MatchPortNameEPKcPS2_iRKSs @110
    _ZN4Jack10JackDriver13NotifyFailureEiPKc @111
    _ZN4Jack10JackDriver13SetBufferSizeEj @112
    _ZN4Jack10JackDriver13SetSampleRateEj @113
    _ZN4Jack10JackDriver13SuspendRefNumEv @114
    _ZN4Jack10JackDriver15LoadConnectionsEib @115
    _ZN4Jack10JackDriver15ProcessReadSyncEv @116
    _ZN4Jack10JackDriver15SaveConnectionsEi @117
    _ZN4Jack10JackDriver15SetupDriverSyncEib @118
    _ZN4Jack10JackDriver16CycleTakeEndTimeEv @119
    _ZN4Jack10JackDriver16NotifyBufferSizeEj @120
    _ZN4Jack10JackDriver16NotifySampleRateEj @121
    _ZN4Jack10JackDriver16ProcessReadAsyncEv @122
    _ZN4Jack10JackDriver16ProcessWriteSyncEv @123
    _ZN4Jack10JackDriver17IsFixedBufferSizeEv @124
    _ZN4Jack10JackDriver17ProcessReadSlavesEv @125
    _ZN4Jack10JackDriver17ProcessWriteAsyncEv @126
    _ZN4Jack10JackDriver18CycleTakeBeginTimeEv @127
    _ZN4Jack10JackDriver18ProcessWriteSlavesEv @128
    _ZN4Jack10JackDriver4OpenEjjbbiibPKcS2_jj @129
    _ZN4Jack10JackDriver4OpenEv @130
    _ZN4Jack10JackDriver4ReadEv @131
    _ZN4Jack10JackDriver4StopEv @132
    _ZN4Jack10JackDriver5CloseEv @133
    _ZN4Jack10JackDriver5StartEv @134
    _ZN4Jack10JackDriver5WriteEv @135
    _ZN4Jack10JackDriver6AttachEv @136
    _ZN4Jack10JackDriver6DetachEv @137
    _ZN4Jack10JackDriver7ProcessEv @138
    _ZN4Jack10JackDriver8AddSlaveEPNS_19JackDriverInterfaceE @139
    _ZN4Jack10JackDriver9GetMasterEv @140
    _ZN4Jack10JackDriver9GetSlavesEv @141
    _ZN4Jack10JackDriver9SetMasterEb @142
    _ZN4Jack10JackDriverC1EPKcS2_PNS_16JackLockedEngineEPNS_16JackWinSemaphoreE @143
    _ZN4Jack10JackDriverC2EPKcS2_PNS_16JackLockedEngineEPNS_16JackWinSemaphoreE @144
    _ZN4Jack10JackDriverD0Ev @145
    _ZN4Jack10JackDriverD1Ev @146
    _ZN4Jack10JackDriverD2Ev @147
    _ZN4Jack10JackEngine10ClientKillEi @148
    _ZN4Jack10JackEngine10EnsureUUIDEi @149
    _ZN4Jack10JackEngine10GetNewUUIDEv @150
    _ZN4Jack10JackEngine10NotifyQuitEv @151
    _ZN4Jack10JackEngine10PortRenameEijPKc @152
    _ZN4Jack10JackEngine11CheckClientEi @153
    _ZN4Jack10JackEngine11ClientCheckEPKciPciiPi @154
    _ZN4Jack10JackEngine11PortConnectEiPKcS2_ @155
    _ZN4Jack10JackEngine11PortConnectEijj @156
    _ZN4Jack10JackEngine11ProcessNextEy @157
    _ZN4Jack10JackEngine12ClientNotifyEPNS_19JackClientInterfaceEiPKciiS4_ii @158
    _ZN4Jack10JackEngine12GetClientPIDEPKc @159
    _ZN4Jack10JackEngine12NotifyClientEiiiPKcii @160
    _ZN4Jack10JackEngine12PortRegisterEiPKcS2_jjPj @161
    _ZN4Jack10JackEngine12SessionReplyEi @162
    _ZN4Jack10JackEngine13NotifyClientsEiiPKcii @163
    _ZN4Jack10JackEngine13NotifyFailureEiPKc @164
    _ZN4Jack10JackEngine13ReleaseRefnumEi @165
    _ZN4Jack10JackEngine13SessionNotifyEiPKc20JackSessionEventTypeS2_PNS_6detail31JackChannelTransactionInterfaceEPPNS_23JackSessionNotifyResultE @166
    _ZN4Jack10JackEngine14AllocateRefnumEv @167
    _ZN4Jack10JackEngine14ClientActivateEib @168
    _ZN4Jack10JackEngine14ClientCloseAuxEib @169
    _ZN4Jack10JackEngine14NotifyActivateEi @170
    _ZN4Jack10JackEngine14PortDisconnectEiPKcS2_ @171
    _ZN4Jack10JackEngine14PortDisconnectEijj @172
    _ZN4Jack10JackEngine14PortUnRegisterEij @173
    _ZN4Jack10JackEngine14ProcessCurrentEy @174
    _ZN4Jack10JackEngine15ClientCheckNameEPKc @175
    _ZN4Jack10JackEngine15GetClientRefNumEPKc @176
    _ZN4Jack10JackEngine15NotifyAddClientEPNS_19JackClientInterfaceEPKci @177
    _ZN4Jack10JackEngine15NotifyFreewheelEb @178
    _ZN4Jack10JackEngine16ClientDeactivateEi @179
    _ZN4Jack10JackEngine16NotifyBufferSizeEj @180
    _ZN4Jack10JackEngine16NotifyClientXRunEi @181
    _ZN4Jack10JackEngine16NotifyDriverXRunEv @182
    _ZN4Jack10JackEngine16NotifyPortRenameEjPKc @183
    _ZN4Jack10JackEngine16NotifySampleRateEj @184
    _ZN4Jack10JackEngine17CheckPortsConnectEijj @185
    _ZN4Jack10JackEngine17NotifyPortConnectEjjb @186
    _ZN4Jack10JackEngine17ReserveClientNameEPKcS2_ @187
    _ZN4Jack10JackEngine18ClientExternalOpenEPKciiPiS3_S3_S3_ @188
    _ZN4Jack10JackEngine18ClientInternalOpenEPKcPiPPNS_17JackEngineControlEPPNS_16JackGraphManagerEPNS_19JackClientInterfaceEb @189
    _ZN4Jack10JackEngine18GenerateUniqueNameEPc @190
    _ZN4Jack10JackEngine18NotifyGraphReorderEv @191
    _ZN4Jack10JackEngine18NotifyRemoveClientEPKci @192
    _ZN4Jack10JackEngine19ClientExternalCloseEi @193
    _ZN4Jack10JackEngine19ClientInternalCloseEib @194
    _ZN4Jack10JackEngine20GetClientNameForUUIDEPKcPc @195
    _ZN4Jack10JackEngine20GetUUIDForClientNameEPKcPc @196
    _ZN4Jack10JackEngine20InternalClientHandleEPKcPiS3_ @197
    _ZN4Jack10JackEngine20InternalClientUnloadEiPi @198
    _ZN4Jack10JackEngine21ComputeTotalLatenciesEv @199
    _ZN4Jack10JackEngine21GetInternalClientNameEiPc @200
    _ZN4Jack10JackEngine21NotifyPortRegistationEjb @201
    _ZN4Jack10JackEngine24ClientHasSessionCallbackEPKc @202
    _ZN4Jack10JackEngine4OpenEv @203
    _ZN4Jack10JackEngine5CloseEv @204
    _ZN4Jack10JackEngine7ProcessEyy @205
    _ZN4Jack10JackEngine9CheckXRunEy @206
    _ZN4Jack10JackEngineC1EPNS_16JackGraphManagerEPNS_16JackWinSemaphoreEPNS_17JackEngineControlEc @207
    _ZN4Jack10JackEngineC2EPNS_16JackGraphManagerEPNS_16JackWinSemaphoreEPNS_17JackEngineControlEc @208
    _ZN4Jack10JackEngineD1Ev @209
    _ZN4Jack10JackEngineD2Ev @210
    _ZN4Jack10JackServer11RemoveSlaveEP14JackDriverInfo @211
    _ZN4Jack10JackServer12SetFreewheelEb @212
    _ZN4Jack10JackServer12SwitchMasterEP18jack_driver_desc_tP7_JSList @213
    _ZN4Jack10JackServer13SetBufferSizeEj @214
    _ZN4Jack10JackServer15GetGraphManagerEv @215
    _ZN4Jack10JackServer15GetSynchroTableEv @216
    _ZN4Jack10JackServer15ReleaseTimebaseEi @217
    _ZN4Jack10JackServer16GetEngineControlEv @218
    _ZN4Jack10JackServer19InternalClientLoad1EPKcS2_S2_iPiiS3_ @219
    _ZN4Jack10JackServer19InternalClientLoad2EPKcS2_PK7_JSListiPiiS6_ @220
    _ZN4Jack10JackServer19SetTimebaseCallbackEii @221
    _ZN4Jack10JackServer21InternalClientLoadAuxEPNS_26JackLoadableInternalClientEPKcS4_iPiiS5_ @222
    _ZN4Jack10JackServer4OpenEP18jack_driver_desc_tP7_JSList @223
    _ZN4Jack10JackServer4StopEv @224
    _ZN4Jack10JackServer5CloseEv @225
    _ZN4Jack10JackServer5StartEv @226
    _ZN4Jack10JackServer6NotifyEiii @227
    _ZN4Jack10JackServer8AddSlaveEP18jack_driver_desc_tP7_JSList @228
    _ZN4Jack10JackServer9GetEngineEv @229
    _ZN4Jack10JackServer9IsRunningEv @230
    _ZN4Jack10JackServerC1Ebbibiib17jack_timer_type_tcPKc @231
    _ZN4Jack10JackServerC2Ebbibiib17jack_timer_type_tcPKc @232
    _ZN4Jack10JackServerD1Ev @233
    _ZN4Jack10JackServerD2Ev @234
    _ZN4Jack10JackShmMemC1Ev @235
    _ZN4Jack10JackShmMemC2Ev @236
    _ZN4Jack10JackShmMemD1Ev @237
    _ZN4Jack10JackShmMemD2Ev @238
    _ZN4Jack10JackShmMemdlEPv @239
    _ZN4Jack10JackShmMemdlEPvy @240
    _ZN4Jack10JackShmMemnwEy @241
    _ZN4Jack10JackShmMemnwEyPv @242
    _ZN4Jack10PrintErrorEi @243
    _ZN4Jack10ThreadExitEv @244
    _ZN4Jack11GetHostNameEPci @245
    _ZN4Jack12GetLastFrameEv @246
    _ZN4Jack12JackWinMutex4LockEv @247
    _ZN4Jack12JackWinMutex6UnlockEv @248
    _ZN4Jack12JackWinMutex7TrylockEv @249
    _ZN4Jack12JackWinMutexC1EPKc @250
    _ZN4Jack12JackWinMutexC2EPKc @251
    _ZN4Jack12JackWinMutexD0Ev @252
    _ZN4Jack12JackWinMutexD1Ev @253
    _ZN4Jack12JackWinMutexD2Ev @254
    _ZN4Jack12SocketAPIEndEv @255
    _ZN4Jack13GetPacketTypeEPNS_15_session_paramsE @256
    _ZN4Jack13JackArgParser10DeleteArgvEPPKc @257
    _ZN4Jack13JackArgParser10FreeParamsEP7_JSList @258
    _ZN4Jack13JackArgParser10GetNumArgvEv @259
    _ZN4Jack13JackArgParser11ParseParamsEP18jack_driver_desc_tPP7_JSList @260
    _ZN4Jack13JackArgParser12GetArgStringEv @261
    _ZN4Jack13JackArgParser7GetArgcEv @262
    _ZN4Jack13JackArgParser7GetArgvEPPc @263
    _ZN4Jack13JackArgParser7GetArgvERSt6vectorISsSaISsEE @264
    _ZN4Jack13JackArgParserC1EPKc @265
    _ZN4Jack13JackArgParserC2EPKc @266
    _ZN4Jack13JackArgParserD1Ev @267
    _ZN4Jack13JackArgParserD2Ev @268
    _ZN4Jack13JackException12PrintMessageEv @269
    _ZN4Jack13JackExceptionC1EPKc @270
    _ZN4Jack13JackExceptionC2EPKc @271
    _ZN4Jack13JackMidiEvent7GetDataEPv @272
    _ZN4Jack13JackWinThread11GetThreadIDEv @273
    _ZN4Jack13JackWinThread12DropRealTimeEv @274
    _ZN4Jack13JackWinThread13ThreadHandlerEPv @275
    _ZN4Jack13JackWinThread15AcquireRealTimeEi @276
    _ZN4Jack13JackWinThread15AcquireRealTimeEv @277
    _ZN4Jack13JackWinThread15DropRealTimeImpEPv @278
    _ZN4Jack13JackWinThread16DropSelfRealTimeEv @279
    _ZN4Jack13JackWinThread18AcquireRealTimeImpEPvi @280
    _ZN4Jack13JackWinThread19AcquireSelfRealTimeEi @281
    _ZN4Jack13JackWinThread19AcquireSelfRealTimeEv @282
    _ZN4Jack13JackWinThread4KillEv @283
    _ZN4Jack13JackWinThread4StopEv @284
    _ZN4Jack13JackWinThread5StartEv @285
    _ZN4Jack13JackWinThread7KillImpEPv @286
    _ZN4Jack13JackWinThread7StopImpEPv @287
    _ZN4Jack13JackWinThread8IsThreadEv @288
    _ZN4Jack13JackWinThread8StartImpEPPviiPFS1_S1_ES1_ @289
    _ZN4Jack13JackWinThread8StartImpEPPviiPFmS1_ES1_ @290
    _ZN4Jack13JackWinThread9StartSyncEv @291
    _ZN4Jack13JackWinThread9TerminateEv @292
    _ZN4Jack13JackWinThreadC1EPNS_21JackRunnableInterfaceE @293
    _ZN4Jack13JackWinThreadC2EPNS_21JackRunnableInterfaceE @294
    _ZN4Jack13JackWinThreadD1Ev @295
    _ZN4Jack13JackWinThreadD2Ev @296
    _ZN4Jack13NetMidiBuffer12GetCycleSizeEv @297
    _ZN4Jack13NetMidiBuffer13DisplayEventsEv @298
    _ZN4Jack13NetMidiBuffer13GetNumPacketsEii @299
    _ZN4Jack13NetMidiBuffer15RenderToNetworkEiy @300
    _ZN4Jack13NetMidiBuffer17RenderFromNetworkEiy @301
    _ZN4Jack13NetMidiBuffer17RenderToJackPortsEv @302
    _ZN4Jack13NetMidiBuffer19RenderFromJackPortsEv @303
    _ZN4Jack13NetMidiBuffer9GetBufferEi @304
    _ZN4Jack13NetMidiBuffer9SetBufferEiPNS_14JackMidiBufferE @305
    _ZN4Jack13NetMidiBufferC1EPNS_15_session_paramsEjPc @306
    _ZN4Jack13NetMidiBufferC2EPNS_15_session_paramsEjPc @307
    _ZN4Jack13NetMidiBufferD1Ev @308
    _ZN4Jack13NetMidiBufferD2Ev @309
    _ZN4Jack13SetPacketTypeEPNS_15_session_paramsENS_17_sync_packet_typeE @310
    _ZN4Jack13SocketAPIInitEv @311
    _ZN4Jack14JackFrameTimer12IncFrameTimeEjyy @312
    _ZN4Jack14JackFrameTimer13InitFrameTimeEv @313
    _ZN4Jack14JackFrameTimer13ReadFrameTimeEPNS_9JackTimerE @314
    _ZN4Jack14JackFrameTimer14ResetFrameTimeEy @315
    _ZN4Jack14JackFrameTimer15IncFrameTimeAuxEjyy @316
    _ZN4Jack14JackFrameTimer16InitFrameTimeAuxEyy @317
    _ZN4Jack14JackFrameTimerC1Ev @318
    _ZN4Jack14JackFrameTimerD1Ev @319
    _ZN4Jack14JackMidiBuffer12ReserveEventEji @320
    _ZN4Jack14JackMidiBuffer5ResetEj @321
    _ZN4Jack14JackMidiDriver13SetBufferSizeEj @322
    _ZN4Jack14JackMidiDriver14GetInputBufferEi @323
    _ZN4Jack14JackMidiDriver15GetOutputBufferEi @324
    _ZN4Jack14JackMidiDriver15ProcessReadSyncEv @325
    _ZN4Jack14JackMidiDriver15UpdateLatenciesEv @326
    _ZN4Jack14JackMidiDriver16ProcessReadAsyncEv @327
    _ZN4Jack14JackMidiDriver16ProcessWriteSyncEv @328
    _ZN4Jack14JackMidiDriver17ProcessWriteAsyncEv @329
    _ZN4Jack14JackMidiDriver4OpenEbbiibPKcS2_jj @330
    _ZN4Jack14JackMidiDriver6AttachEv @331
    _ZN4Jack14JackMidiDriver6DetachEv @332
    _ZN4Jack14JackMidiDriverC1EPKcS2_PNS_16JackLockedEngineEPNS_16JackWinSemaphoreE @333
    _ZN4Jack14JackMidiDriverC2EPKcS2_PNS_16JackLockedEngineEPNS_16JackWinSemaphoreE @334
    _ZN4Jack14JackMidiDriverD0Ev @335
    _ZN4Jack14JackMidiDriverD1Ev @336
    _ZN4Jack14JackMidiDriverD2Ev @337
    _ZN4Jack14MidiBufferHToNEPNS_14JackMidiBufferES1_ @338
    _ZN4Jack14MidiBufferNToHEPNS_14JackMidiBufferES1_ @339
    _ZN4Jack14NetAudioBuffer11CheckPacketEii @340
    _ZN4Jack14NetAudioBuffer17RenderToJackPortsEi @341
    _ZN4Jack14NetAudioBuffer19RenderFromJackPortsEi @342
    _ZN4Jack14NetAudioBuffer20ActivePortsToNetworkEPc @343
    _ZN4Jack14NetAudioBuffer22ActivePortsFromNetworkEPcj @344
    _ZN4Jack14NetAudioBuffer7CleanupEv @345
    _ZN4Jack14NetAudioBuffer9GetBufferEi @346
    _ZN4Jack14NetAudioBuffer9NextCycleEv @347
    _ZN4Jack14NetAudioBuffer9SetBufferEiPf @348
    _ZN4Jack14NetAudioBufferC1EPNS_15_session_paramsEjPc @349
    _ZN4Jack14NetAudioBufferC2EPNS_15_session_paramsEjPc @350
    _ZN4Jack14NetAudioBufferD0Ev @351
    _ZN4Jack14NetAudioBufferD1Ev @352
    _ZN4Jack14NetAudioBufferD2Ev @353
    _ZN4Jack15GetCurrentFrameEv @354
    _ZN4Jack15GetGraphManagerEv @355
    _ZN4Jack15GetSynchroTableEv @356
    _ZN4Jack15JackAudioDriver11ProcessSyncEv @357
    _ZN4Jack15JackAudioDriver12ClientNotifyEiPKciiS2_ii @358
    _ZN4Jack15JackAudioDriver12ProcessAsyncEv @359
    _ZN4Jack15JackAudioDriver13SetBufferSizeEj @360
    _ZN4Jack15JackAudioDriver13SetSampleRateEj @361
    _ZN4Jack15JackAudioDriver14GetInputBufferEi @362
    _ZN4Jack15JackAudioDriver15GetOutputBufferEi @363
    _ZN4Jack15JackAudioDriver15UpdateLatenciesEv @364
    _ZN4Jack15JackAudioDriver16GetMonitorBufferEi @365
    _ZN4Jack15JackAudioDriver16ProcessGraphSyncEv @366
    _ZN4Jack15JackAudioDriver17ProcessGraphAsyncEv @367
    _ZN4Jack15JackAudioDriver21HandleLatencyCallbackEi @368
    _ZN4Jack15JackAudioDriver21ProcessGraphSyncSlaveEv @369
    _ZN4Jack15JackAudioDriver22ProcessGraphAsyncSlaveEv @370
    _ZN4Jack15JackAudioDriver22ProcessGraphSyncMasterEv @371
    _ZN4Jack15JackAudioDriver23ProcessGraphAsyncMasterEv @372
    _ZN4Jack15JackAudioDriver4OpenEjjbbiibPKcS2_jj @373
    _ZN4Jack15JackAudioDriver5WriteEv @374
    _ZN4Jack15JackAudioDriver6AttachEv @375
    _ZN4Jack15JackAudioDriver6DetachEv @376
    _ZN4Jack15JackAudioDriver7ProcessEv @377
    _ZN4Jack15JackAudioDriverC1EPKcS2_PNS_16JackLockedEngineEPNS_16JackWinSemaphoreE @378
    _ZN4Jack15JackAudioDriverC2EPKcS2_PNS_16JackLockedEngineEPNS_16JackWinSemaphoreE @379
    _ZN4Jack15JackAudioDriverD0Ev @380
    _ZN4Jack15JackAudioDriverD1Ev @381
    _ZN4Jack15JackAudioDriverD2Ev @382
    _ZN4Jack15JackTimedDriver10FirstCycleEy @383
    _ZN4Jack15JackTimedDriver11ProcessWaitEv @384
    _ZN4Jack15JackTimedDriver12CurrentCycleEy @385
    _ZN4Jack15JackTimedDriver17IsFixedBufferSizeEv @386
    _ZN4Jack15JackTimedDriver5StartEv @387
    _ZN4Jack15JackTimedDriverD0Ev @388
    _ZN4Jack15JackTimedDriverD1Ev @389
    _ZN4Jack15JackTimedDriverD2Ev @390
    _ZN4Jack16GetEngineControlEv @391
    _ZN4Jack16GetMessageLengthEh @392
    _ZN4Jack16JackBaseWinMutex4LockEv @393
    _ZN4Jack16JackBaseWinMutex6UnlockEv @394
    _ZN4Jack16JackBaseWinMutex7TrylockEv @395
    _ZN4Jack16JackBaseWinMutexD0Ev @396
    _ZN4Jack16JackBaseWinMutexD1Ev @397
    _ZN4Jack16JackGraphManager10AssertPortEj @398
    _ZN4Jack16JackGraphManager10CheckPortsEjj @399
    _ZN4Jack16JackGraphManager10DeactivateEi @400
    _ZN4Jack16JackGraphManager10DisconnectEjj @401
    _ZN4Jack16JackGraphManager10InitRefNumEi @402
    _ZN4Jack16JackGraphManager11GetPortsAuxEPPKcS2_S2_m @403
    _ZN4Jack16JackGraphManager11GetTwoPortsEPKcS2_PjS3_ @404
    _ZN4Jack16JackGraphManager11IsConnectedEjj @405
    _ZN4Jack16JackGraphManager11ReleasePortEij @406
    _ZN4Jack16JackGraphManager12AllocatePortEiPKcS2_13JackPortFlagsj @407
    _ZN4Jack16JackGraphManager12ResumeRefNumEPNS_17JackClientControlEPNS_16JackWinSemaphoreE @408
    _ZN4Jack16JackGraphManager12RunNextGraphEv @409
    _ZN4Jack16JackGraphManager13DirectConnectEii @410
    _ZN4Jack16JackGraphManager13DisconnectAllEj @411
    _ZN4Jack16JackGraphManager13GetInputPortsEiPt @412
    _ZN4Jack16JackGraphManager13SetBufferSizeEj @413
    _ZN4Jack16JackGraphManager13SuspendRefNumEPNS_17JackClientControlEPNS_16JackWinSemaphoreEl @414
    _ZN4Jack16JackGraphManager14GetConnectionsEj @415
    _ZN4Jack16JackGraphManager14GetConnectionsEjPt @416
    _ZN4Jack16JackGraphManager14GetInputRefNumEj @417
    _ZN4Jack16JackGraphManager14GetOutputPortsEiPt @418
    _ZN4Jack16JackGraphManager14RemoveAllPortsEi @419
    _ZN4Jack16JackGraphManager14RequestMonitorEjb @420
    _ZN4Jack16JackGraphManager15AllocatePortAuxEiPKcS2_13JackPortFlags @421
    _ZN4Jack16JackGraphManager15GetClientTimingEi @422
    _ZN4Jack16JackGraphManager15GetOutputRefNumEj @423
    _ZN4Jack16JackGraphManager15IsFinishedGraphEv @424
    _ZN4Jack16JackGraphManager15RunCurrentGraphEv @425
    _ZN4Jack16JackGraphManager15TopologicalSortERSt6vectorItSaItEE @426
    _ZN4Jack16JackGraphManager16DirectDisconnectEii @427
    _ZN4Jack16JackGraphManager17GetConnectionsAuxEPNS_21JackConnectionManagerEPPKcj @428
    _ZN4Jack16JackGraphManager17GetConnectionsNumEj @429
    _ZN4Jack16JackGraphManager18DisconnectAllInputEj @430
    _ZN4Jack16JackGraphManager18DisconnectAllPortsEi @431
    _ZN4Jack16JackGraphManager18IsDirectConnectionEii @432
    _ZN4Jack16JackGraphManager18RecalculateLatencyEj23JackLatencyCallbackMode @433
    _ZN4Jack16JackGraphManager19ComputeTotalLatencyEj @434
    _ZN4Jack16JackGraphManager19DisconnectAllOutputEj @435
    _ZN4Jack16JackGraphManager21ComputeTotalLatenciesEv @436
    _ZN4Jack16JackGraphManager21RecalculateLatencyAuxEj23JackLatencyCallbackMode @437
    _ZN4Jack16JackGraphManager22ComputeTotalLatencyAuxEjjPNS_21JackConnectionManagerEi @438
    _ZN4Jack16JackGraphManager4SaveEPNS_21JackConnectionManagerE @439
    _ZN4Jack16JackGraphManager7ConnectEjj @440
    _ZN4Jack16JackGraphManager7DestroyEPS0_ @441
    _ZN4Jack16JackGraphManager7GetPortEPKc @442
    _ZN4Jack16JackGraphManager7GetPortEj @443
    _ZN4Jack16JackGraphManager7RestoreEPNS_21JackConnectionManagerE @444
    _ZN4Jack16JackGraphManager8ActivateEi @445
    _ZN4Jack16JackGraphManager8AllocateEi @446
    _ZN4Jack16JackGraphManager8GetPortsEPKcS2_m @447
    _ZN4Jack16JackGraphManager9GetBufferEj @448
    _ZN4Jack16JackGraphManager9GetBufferEjj @449
    _ZN4Jack16JackGraphManagerC1Ei @450
    _ZN4Jack16JackGraphManagerC2Ei @451
    _ZN4Jack16JackGraphManagerD1Ev @452
    _ZN4Jack16JackLockedEngine10ClientKillEi @453
    _ZN4Jack16JackLockedEngine10NotifyQuitEv @454
    _ZN4Jack16JackLockedEngine10PortRenameEijPKc @455
    _ZN4Jack16JackLockedEngine11ClientCheckEPKciPciiPi @456
    _ZN4Jack16JackLockedEngine11PortConnectEiPKcS2_ @457
    _ZN4Jack16JackLockedEngine11PortConnectEijj @458
    _ZN4Jack16JackLockedEngine12GetClientPIDEPKc @459
    _ZN4Jack16JackLockedEngine12PortRegisterEiPKcS2_jjPj @460
    _ZN4Jack16JackLockedEngine12SessionReplyEi @461
    _ZN4Jack16JackLockedEngine13NotifyFailureEiPKc @462
    _ZN4Jack16JackLockedEngine13SessionNotifyEiPKc20JackSessionEventTypeS2_PNS_6detail31JackChannelTransactionInterfaceEPPNS_23JackSessionNotifyResultE @463
    _ZN4Jack16JackLockedEngine14ClientActivateEib @464
    _ZN4Jack16JackLockedEngine14PortDisconnectEiPKcS2_ @465
    _ZN4Jack16JackLockedEngine14PortDisconnectEijj @466
    _ZN4Jack16JackLockedEngine14PortUnRegisterEij @467
    _ZN4Jack16JackLockedEngine15NotifyFreewheelEb @468
    _ZN4Jack16JackLockedEngine16ClientDeactivateEi @469
    _ZN4Jack16JackLockedEngine16NotifyBufferSizeEj @470
    _ZN4Jack16JackLockedEngine16NotifyClientXRunEi @471
    _ZN4Jack16JackLockedEngine16NotifyDriverXRunEv @472
    _ZN4Jack16JackLockedEngine16NotifySampleRateEj @473
    _ZN4Jack16JackLockedEngine17ReserveClientNameEPKcS2_ @474
    _ZN4Jack16JackLockedEngine18ClientExternalOpenEPKciiPiS3_S3_S3_ @475
    _ZN4Jack16JackLockedEngine18ClientInternalOpenEPKcPiPPNS_17JackEngineControlEPPNS_16JackGraphManagerEPNS_19JackClientInterfaceEb @476
    _ZN4Jack16JackLockedEngine18NotifyGraphReorderEv @477
    _ZN4Jack16JackLockedEngine19ClientExternalCloseEi @478
    _ZN4Jack16JackLockedEngine19ClientInternalCloseEib @479
    _ZN4Jack16JackLockedEngine20GetClientNameForUUIDEPKcPc @480
    _ZN4Jack16JackLockedEngine20GetUUIDForClientNameEPKcPc @481
    _ZN4Jack16JackLockedEngine20InternalClientHandleEPKcPiS3_ @482
    _ZN4Jack16JackLockedEngine20InternalClientUnloadEiPi @483
    _ZN4Jack16JackLockedEngine21ComputeTotalLatenciesEv @484
    _ZN4Jack16JackLockedEngine21GetInternalClientNameEiPc @485
    _ZN4Jack16JackLockedEngine24ClientHasSessionCallbackEPKc @486
    _ZN4Jack16JackLockedEngine4OpenEv @487
    _ZN4Jack16JackLockedEngine5CloseEv @488
    _ZN4Jack16JackLockedEngine7ProcessEyy @489
    _ZN4Jack16JackLockedEngineC1EPNS_16JackGraphManagerEPNS_16JackWinSemaphoreEPNS_17JackEngineControlEc @490
    _ZN4Jack16JackLockedEngineD1Ev @491
    _ZN4Jack16JackNetExceptionC1EPKc @492
    _ZN4Jack16JackNetExceptionC1Ev @493
    _ZN4Jack16JackNetInterface10FinishRecvEPNS_14NetAudioBufferE @494
    _ZN4Jack16JackNetInterface10InitializeEv @495
    _ZN4Jack16JackNetInterface13SetRcvTimeOutEv @496
    _ZN4Jack16JackNetInterface16SetNetBufferSizeEv @497
    _ZN4Jack16JackNetInterface18AudioBufferFactoryEiPc @498
    _ZN4Jack16JackNetInterface18FreeNetworkBuffersEv @499
    _ZN4Jack16JackNetInterface8MidiRecvEPNS_14_packet_headerEPNS_13NetMidiBufferERj @500
    _ZN4Jack16JackNetInterface8MidiSendEPNS_13NetMidiBufferEii @501
    _ZN4Jack16JackNetInterface9AudioRecvEPNS_14_packet_headerEPNS_14NetAudioBufferE @502
    _ZN4Jack16JackNetInterface9AudioSendEPNS_14NetAudioBufferEi @503
    _ZN4Jack16JackNetInterface9SetParamsEv @504
    _ZN4Jack16JackNetInterfaceC1EPKci @505
    _ZN4Jack16JackNetInterfaceC1ERNS_15_session_paramsERNS_16JackNetWinSocketEPKc @506
    _ZN4Jack16JackNetInterfaceC1Ev @507
    _ZN4Jack16JackNetInterfaceC2EPKci @508
    _ZN4Jack16JackNetInterfaceC2ERNS_15_session_paramsERNS_16JackNetWinSocketEPKc @509
    _ZN4Jack16JackNetInterfaceC2Ev @510
    _ZN4Jack16JackNetInterfaceD0Ev @511
    _ZN4Jack16JackNetInterfaceD1Ev @512
    _ZN4Jack16JackNetInterfaceD2Ev @513
    _ZN4Jack16JackNetWinSocket10SetAddressEPKci @514
    _ZN4Jack16JackNetWinSocket10SetTimeOutEi @515
    _ZN4Jack16JackNetWinSocket12SetLocalLoopEv @516
    _ZN4Jack16JackNetWinSocket14JoinMCastGroupEPKc @517
    _ZN4Jack16JackNetWinSocket4BindEv @518
    _ZN4Jack16JackNetWinSocket4RecvEPvyi @519
    _ZN4Jack16JackNetWinSocket4SendEPKvyi @520
    _ZN4Jack16JackNetWinSocket5CloseEv @521
    _ZN4Jack16JackNetWinSocket5ResetEv @522
    _ZN4Jack16JackNetWinSocket6SendToEPKvyi @523
    _ZN4Jack16JackNetWinSocket6SendToEPKvyiPKc @524
    _ZN4Jack16JackNetWinSocket7ConnectEv @525
    _ZN4Jack16JackNetWinSocket7GetNameEPc @526
    _ZN4Jack16JackNetWinSocket7GetPortEv @527
    _ZN4Jack16JackNetWinSocket7IsLocalEPc @528
    _ZN4Jack16JackNetWinSocket8BindWithEPKc @529
    _ZN4Jack16JackNetWinSocket8BindWithEi @530
    _ZN4Jack16JackNetWinSocket8GetErrorEv @531
    _ZN4Jack16JackNetWinSocket8IsSocketEv @532
    _ZN4Jack16JackNetWinSocket8RecvFromEPvyi @533
    _ZN4Jack16JackNetWinSocket8SetPortAEi @534
    _ZN4Jack16JackNetWinSocket9CatchHostEPvyi @535
    _ZN4Jack16JackNetWinSocket9ConnectToEPKc @536
    _ZN4Jack16JackNetWinSocket9GetOptionEiiPvPi @537
    _ZN4Jack16JackNetWinSocket9GetRecvIPEv @538
    _ZN4Jack16JackNetWinSocket9GetSendIPEv @539
    _ZN4Jack16JackNetWinSocket9NewSocketEv @540
    _ZN4Jack16JackNetWinSocket9SetOptionEiiPKvi @541
    _ZN4Jack16JackNetWinSocketC1EPKci @542
    _ZN4Jack16JackNetWinSocketC1ERKS0_ @543
    _ZN4Jack16JackNetWinSocketC1Ev @544
    _ZN4Jack16JackNetWinSocketC2EPKci @545
    _ZN4Jack16JackNetWinSocketC2ERKS0_ @546
    _ZN4Jack16JackNetWinSocketC2Ev @547
    _ZN4Jack16JackNetWinSocketD1Ev @548
    _ZN4Jack16JackNetWinSocketD2Ev @549
    _ZN4Jack16JackNetWinSocketaSERKS0_ @550
    _ZN4Jack16JackWaiterDriver11ProcessNullEv @551
    _ZN4Jack16JackWaiterDriverD0Ev @552
    _ZN4Jack16JackWaiterDriverD1Ev @553
    _ZN4Jack16JackWaiterDriverD2Ev @554
    _ZN4Jack16PacketHeaderHToNEPNS_14_packet_headerES1_ @555
    _ZN4Jack16PacketHeaderNToHEPNS_14_packet_headerES1_ @556
    _ZN4Jack17GetFramesFromTimeEy @557
    _ZN4Jack17GetTimeFromFramesEj @558
    _ZN4Jack17GetTransportStateEi @559
    _ZN4Jack17JackEngineControl10CycleBeginEPPNS_19JackClientInterfaceEPNS_16JackGraphManagerEyy @560
    _ZN4Jack17JackEngineControl10NotifyXRunEyf @561
    _ZN4Jack17JackEngineControl11CalcCPULoadEPPNS_19JackClientInterfaceEPNS_16JackGraphManagerEyy @562
    _ZN4Jack17JackEngineControl12CycleIncTimeEy @563
    _ZN4Jack17JackEngineControl13InitFrameTimeEv @564
    _ZN4Jack17JackEngineControl13ReadFrameTimeEPNS_9JackTimerE @565
    _ZN4Jack17JackEngineControl13UpdateTimeOutEv @566
    _ZN4Jack17JackEngineControl14ResetFrameTimeEy @567
    _ZN4Jack17JackEngineControl17ResetRollingUsecsEv @568
    _ZN4Jack17JackEngineControl8CycleEndEPPNS_19JackClientInterfaceE @569
    _ZN4Jack17JackEngineControl9ResetXRunEv @570
    _ZN4Jack17JackEngineControlC1Ebblblb17jack_timer_type_tPKc @571
    _ZN4Jack17JackEngineControlD1Ev @572
    _ZN4Jack17JackMidiReadQueueD0Ev @573
    _ZN4Jack17JackMidiReadQueueD1Ev @574
    _ZN4Jack17JackMidiReadQueueD2Ev @575
    _ZN4Jack17JackQuitExceptionC1Ev @576
    _ZN4Jack17JackServerGlobals10fUserCountE @577 DATA
    _ZN4Jack17JackServerGlobals11fSlavesListE @578 DATA
    _ZN4Jack17JackServerGlobals14fInternalsListE @579 DATA
    _ZN4Jack17JackServerGlobals17on_device_acquireE @580 DATA
    _ZN4Jack17JackServerGlobals17on_device_releaseE @581 DATA
    _ZN4Jack17JackServerGlobals4InitEv @582
    _ZN4Jack17JackServerGlobals4StopEv @583
    _ZN4Jack17JackServerGlobals5StartEPKcP18jack_driver_desc_tP7_JSListiiiiiii17jack_timer_type_tc @584
    _ZN4Jack17JackServerGlobals6DeleteEv @585
    _ZN4Jack17JackServerGlobals7DestroyEv @586
    _ZN4Jack17JackServerGlobals9fInstanceE @587 DATA
    _ZN4Jack17NetIntAudioBuffer12GetCycleSizeEv @588
    _ZN4Jack17NetIntAudioBuffer13GetNumPacketsEi @589
    _ZN4Jack17NetIntAudioBuffer15RenderToNetworkEij @590
    _ZN4Jack17NetIntAudioBuffer16GetCycleDurationEv @591
    _ZN4Jack17NetIntAudioBuffer17RenderFromNetworkEiij @592
    _ZN4Jack17NetIntAudioBuffer17RenderToJackPortsEi @593
    _ZN4Jack17NetIntAudioBuffer19RenderFromJackPortsEi @594
    _ZN4Jack17NetIntAudioBufferC1EPNS_15_session_paramsEjPc @595
    _ZN4Jack17NetIntAudioBufferC2EPNS_15_session_paramsEjPc @596
    _ZN4Jack17NetIntAudioBufferD0Ev @597
    _ZN4Jack17NetIntAudioBufferD1Ev @598
    _ZN4Jack17NetIntAudioBufferD2Ev @599
    _ZN4Jack17SessionParamsHToNEPNS_15_session_paramsES1_ @600
    _ZN4Jack17SessionParamsNToHEPNS_15_session_paramsES1_ @601
    _ZN4Jack17TransportDataHToNEPNS_19_net_transport_dataES1_ @602
    _ZN4Jack17TransportDataNToHEPNS_19_net_transport_dataES1_ @603
    _ZN4Jack18ApplyRunningStatusEP17jack_midi_event_th @604
    _ZN4Jack18ApplyRunningStatusEPyPPhh @605
    _ZN4Jack18JackMidiAsyncQueue12DequeueEventEv @606
    _ZN4Jack18JackMidiAsyncQueue12EnqueueEventEjyPh @607
    _ZN4Jack18JackMidiAsyncQueue17GetAvailableSpaceEv @608
    _ZN4Jack18JackMidiAsyncQueueC1Eyy @609
    _ZN4Jack18JackMidiAsyncQueueC2Eyy @610
    _ZN4Jack18JackMidiAsyncQueueD0Ev @611
    _ZN4Jack18JackMidiAsyncQueueD1Ev @612
    _ZN4Jack18JackMidiAsyncQueueD2Ev @613
    _ZN4Jack18JackMidiWriteQueueD0Ev @614
    _ZN4Jack18JackMidiWriteQueueD1Ev @615
    _ZN4Jack18JackMidiWriteQueueD2Ev @616
    _ZN4Jack18JackThreadedDriver11ProcessReadEv @617
    _ZN4Jack18JackThreadedDriver11RemoveSlaveEPNS_19JackDriverInterfaceE @618
    _ZN4Jack18JackThreadedDriver11SetRealTimeEv @619
    _ZN4Jack18JackThreadedDriver12ClientNotifyEiPKciiS2_ii @620
    _ZN4Jack18JackThreadedDriver12ProcessWriteEv @621
    _ZN4Jack18JackThreadedDriver13SetBufferSizeEj @622
    _ZN4Jack18JackThreadedDriver13SetSampleRateEj @623
    _ZN4Jack18JackThreadedDriver15ProcessReadSyncEv @624
    _ZN4Jack18JackThreadedDriver16ProcessReadAsyncEv @625
    _ZN4Jack18JackThreadedDriver16ProcessWriteSyncEv @626
    _ZN4Jack18JackThreadedDriver17IsFixedBufferSizeEv @627
    _ZN4Jack18JackThreadedDriver17ProcessReadSlavesEv @628
    _ZN4Jack18JackThreadedDriver17ProcessWriteAsyncEv @629
    _ZN4Jack18JackThreadedDriver18ProcessWriteSlavesEv @630
    _ZN4Jack18JackThreadedDriver4InitEv @631
    _ZN4Jack18JackThreadedDriver4OpenEjjbbiibPKcS2_jj @632
    _ZN4Jack18JackThreadedDriver4OpenEv @633
    _ZN4Jack18JackThreadedDriver4ReadEv @634
    _ZN4Jack18JackThreadedDriver4StopEv @635
    _ZN4Jack18JackThreadedDriver5CloseEv @636
    _ZN4Jack18JackThreadedDriver5StartEv @637
    _ZN4Jack18JackThreadedDriver5WriteEv @638
    _ZN4Jack18JackThreadedDriver6AttachEv @639
    _ZN4Jack18JackThreadedDriver6DetachEv @640
    _ZN4Jack18JackThreadedDriver7ExecuteEv @641
    _ZN4Jack18JackThreadedDriver7ProcessEv @642
    _ZN4Jack18JackThreadedDriver8AddSlaveEPNS_19JackDriverInterfaceE @643
    _ZN4Jack18JackThreadedDriver9GetMasterEv @644
    _ZN4Jack18JackThreadedDriver9GetSlavesEv @645
    _ZN4Jack18JackThreadedDriver9SetMasterEb @646
    _ZN4Jack18JackThreadedDriverC1EPNS_10JackDriverE @647
    _ZN4Jack18JackThreadedDriverC2EPNS_10JackDriverE @648
    _ZN4Jack18JackThreadedDriverD0Ev @649
    _ZN4Jack18JackThreadedDriverD1Ev @650
    _ZN4Jack18JackThreadedDriverD2Ev @651
    _ZN4Jack19JackClientInterfaceC2Ev @652
    _ZN4Jack19JackClientInterfaceD0Ev @653
    _ZN4Jack19JackClientInterfaceD1Ev @654
    _ZN4Jack19JackClientInterfaceD2Ev @655
    _ZN4Jack19JackDriverInterfaceC2Ev @656
    _ZN4Jack19JackDriverInterfaceD0Ev @657
    _ZN4Jack19JackDriverInterfaceD1Ev @658
    _ZN4Jack19JackDriverInterfaceD2Ev @659
    _ZN4Jack19JackRestarterDriver11RestartWaitEv @660
    _ZN4Jack19JackRestarterDriver16SetRestartDriverEPNS_10JackDriverE @661
    _ZN4Jack19JackRestarterDriverD0Ev @662
    _ZN4Jack19JackRestarterDriverD1Ev @663
    _ZN4Jack19JackTransportEngine10CycleBeginEjy @664
    _ZN4Jack19JackTransportEngine10SetCommandENS_19transport_command_tE @665
    _ZN4Jack19JackTransportEngine11SyncTimeoutEjj @666
    _ZN4Jack19JackTransportEngine12CopyPositionEP14_jack_positionS2_ @667
    _ZN4Jack19JackTransportEngine13RequestNewPosEP14_jack_position @668
    _ZN4Jack19JackTransportEngine13ResetTimebaseEi @669
    _ZN4Jack19JackTransportEngine14ReadCurrentPosEP14_jack_position @670
    _ZN4Jack19JackTransportEngine14SetSyncTimeoutEy @671
    _ZN4Jack19JackTransportEngine15CheckAllRollingEPPNS_19JackClientInterfaceE @672
    _ZN4Jack19JackTransportEngine15GetCurrentFrameEv @673
    _ZN4Jack19JackTransportEngine15MakeAllLocatingEPPNS_19JackClientInterfaceE @674
    _ZN4Jack19JackTransportEngine15MakeAllStoppingEPPNS_19JackClientInterfaceE @675
    _ZN4Jack19JackTransportEngine16GenerateUniqueIDEv @676
    _ZN4Jack19JackTransportEngine17GetTimebaseMasterERiRb @677
    _ZN4Jack19JackTransportEngine17SetTimebaseMasterEib @678
    _ZN4Jack19JackTransportEngine23MakeAllStartingLocatingEPPNS_19JackClientInterfaceE @679
    _ZN4Jack19JackTransportEngine5QueryEP14_jack_position @680
    _ZN4Jack19JackTransportEngine8CycleEndEPPNS_19JackClientInterfaceEjj @681
    _ZN4Jack19JackTransportEngineC1Ev @682
    _ZN4Jack19JackTransportEngineC2Ev @683
    _ZN4Jack19NetFloatAudioBuffer12GetCycleSizeEv @684
    _ZN4Jack19NetFloatAudioBuffer12UpdateParamsEi @685
    _ZN4Jack19NetFloatAudioBuffer13GetNumPacketsEi @686
    _ZN4Jack19NetFloatAudioBuffer15RenderToNetworkEPcii @687
    _ZN4Jack19NetFloatAudioBuffer15RenderToNetworkEij @688
    _ZN4Jack19NetFloatAudioBuffer16GetCycleDurationEv @689
    _ZN4Jack19NetFloatAudioBuffer17RenderFromNetworkEPcii @690
    _ZN4Jack19NetFloatAudioBuffer17RenderFromNetworkEiij @691
    _ZN4Jack19NetFloatAudioBufferC1EPNS_15_session_paramsEjPc @692
    _ZN4Jack19NetFloatAudioBufferC2EPNS_15_session_paramsEjPc @693
    _ZN4Jack19NetFloatAudioBufferD0Ev @694
    _ZN4Jack19NetFloatAudioBufferD1Ev @695
    _ZN4Jack19NetFloatAudioBufferD2Ev @696
    _ZN4Jack19PacketHeaderDisplayEPNS_14_packet_headerE @697
    _ZN4Jack20SessionParamsDisplayEPNS_15_session_paramsE @698
    _ZN4Jack21JackConnectionManager10DisconnectEjj @699
    _ZN4Jack21JackConnectionManager10InitRefNumEi @700
    _ZN4Jack21JackConnectionManager10ResetGraphEPNS_16JackClientTimingE @701
    _ZN4Jack21JackConnectionManager12AddInputPortEij @702
    _ZN4Jack21JackConnectionManager12ResumeRefNumEPNS_17JackClientControlEPNS_16JackWinSemaphoreEPNS_16JackClientTimingE @703
    _ZN4Jack21JackConnectionManager13AddOutputPortEij @704
    _ZN4Jack21JackConnectionManager13DirectConnectEii @705
    _ZN4Jack21JackConnectionManager13GetInputPortsEi @706
    _ZN4Jack21JackConnectionManager13SuspendRefNumEPNS_17JackClientControlEPNS_16JackWinSemaphoreEPNS_16JackClientTimingEl @707
    _ZN4Jack21JackConnectionManager14GetOutputPortsEi @708
    _ZN4Jack21JackConnectionManager15RemoveInputPortEij @709
    _ZN4Jack21JackConnectionManager15TopologicalSortERSt6vectorItSaItEE @710
    _ZN4Jack21JackConnectionManager16DirectDisconnectEii @711
    _ZN4Jack21JackConnectionManager16RemoveOutputPortEij @712
    _ZN4Jack21JackConnectionManager19DecDirectConnectionEjj @713
    _ZN4Jack21JackConnectionManager19IncDirectConnectionEjj @714
    _ZN4Jack21JackConnectionManager21DecFeedbackConnectionEjj @715
    _ZN4Jack21JackConnectionManager21IncFeedbackConnectionEjj @716
    _ZN4Jack21JackConnectionManager7ConnectEjj @717
    _ZN4Jack21JackConnectionManagerC1Ev @718
    _ZN4Jack21JackConnectionManagerC2Ev @719
    _ZN4Jack21JackConnectionManagerD1Ev @720
    _ZN4Jack21JackConnectionManagerD2Ev @721
    _ZN4Jack21JackNetSlaveInterface13InitRenderingEv @722
    _ZN4Jack21JackNetSlaveInterface13fSlaveCounterE @723 DATA
    _ZN4Jack21JackNetSlaveInterface14FatalRecvErrorEv @724
    _ZN4Jack21JackNetSlaveInterface14FatalSendErrorEv @725
    _ZN4Jack21JackNetSlaveInterface14InitConnectionEi @726
    _ZN4Jack21JackNetSlaveInterface16DecodeSyncPacketERi @727
    _ZN4Jack21JackNetSlaveInterface16EncodeSyncPacketEi @728
    _ZN4Jack21JackNetSlaveInterface17SendStartToMasterEv @729
    _ZN4Jack21JackNetSlaveInterface21SendAvailableToMasterEi @730
    _ZN4Jack21JackNetSlaveInterface4InitEv @731
    _ZN4Jack21JackNetSlaveInterface4RecvEyi @732
    _ZN4Jack21JackNetSlaveInterface4SendEyi @733
    _ZN4Jack21JackNetSlaveInterface7InitAPIEv @734
    _ZN4Jack21JackNetSlaveInterface8DataRecvEv @735
    _ZN4Jack21JackNetSlaveInterface8DataSendEv @736
    _ZN4Jack21JackNetSlaveInterface8SyncRecvEv @737
    _ZN4Jack21JackNetSlaveInterface8SyncSendEv @738
    _ZN4Jack21JackNetSlaveInterface9SetParamsEv @739
    _ZN4Jack21JackNetSlaveInterfaceD0Ev @740
    _ZN4Jack21JackNetSlaveInterfaceD1Ev @741
    _ZN4Jack22JackNetMasterInterface14FatalRecvErrorEv @742
    _ZN4Jack22JackNetMasterInterface14FatalSendErrorEv @743
    _ZN4Jack22JackNetMasterInterface16DecodeSyncPacketERi @744
    _ZN4Jack22JackNetMasterInterface16EncodeSyncPacketEi @745
    _ZN4Jack22JackNetMasterInterface4ExitEv @746
    _ZN4Jack22JackNetMasterInterface4InitEv @747
    _ZN4Jack22JackNetMasterInterface4RecvEyi @748
    _ZN4Jack22JackNetMasterInterface4SendEyi @749
    _ZN4Jack22JackNetMasterInterface8DataRecvEv @750
    _ZN4Jack22JackNetMasterInterface8DataSendEv @751
    _ZN4Jack22JackNetMasterInterface8SyncRecvEv @752
    _ZN4Jack22JackNetMasterInterface8SyncSendEv @753
    _ZN4Jack22JackNetMasterInterface9SetParamsEv @754
    _ZN4Jack22JackNetMasterInterfaceD0Ev @755
    _ZN4Jack22JackNetMasterInterfaceD1Ev @756
    _ZN4Jack22JackTemporaryExceptionC1Ev @757
    _ZN4Jack22JackWaitThreadedDriver11ExecuteRealEv @758
    _ZN4Jack22JackWaitThreadedDriver4InitEv @759
    _ZN4Jack22JackWaitThreadedDriver7ExecuteEv @760
    _ZN4Jack22JackWaitThreadedDriverD0Ev @761
    _ZN4Jack22JackWaitThreadedDriverD1Ev @762
    _ZN4Jack22JackWinCriticalSection4LockEv @763
    _ZN4Jack22JackWinCriticalSection6UnlockEv @764
    _ZN4Jack22JackWinCriticalSection7TrylockEv @765
    _ZN4Jack22JackWinCriticalSectionD0Ev @766
    _ZN4Jack22JackWinCriticalSectionD1Ev @767
    _ZN4Jack23JackMidiBufferReadQueue12DequeueEventEv @768
    _ZN4Jack23JackMidiBufferReadQueue15ResetMidiBufferEPNS_14JackMidiBufferE @769
    _ZN4Jack23JackMidiBufferReadQueueC1Ev @770
    _ZN4Jack23JackMidiBufferReadQueueC2Ev @771
    _ZN4Jack23NetTransportDataDisplayEPNS_19_net_transport_dataE @772
    _ZN4Jack24JackMidiBufferWriteQueue12EnqueueEventEjyPh @773
    _ZN4Jack24JackMidiBufferWriteQueue15ResetMidiBufferEPNS_14JackMidiBufferEj @774
    _ZN4Jack24JackMidiBufferWriteQueueC1Ev @775
    _ZN4Jack24JackMidiBufferWriteQueueC2Ev @776
    _ZN4Jack25JackRestartThreadedDriver7ExecuteEv @777
    _ZN4Jack25JackRestartThreadedDriverD0Ev @778
    _ZN4Jack25JackRestartThreadedDriverD1Ev @779
    _ZN4Jack6detail19JackThreadInterface9GetStatusEv @780
    _ZN4Jack6detail19JackThreadInterface9SetStatusENS1_12kThreadStateE @781
    _ZN4Jack6detail19JackThreadInterfaceC2EPNS_21JackRunnableInterfaceEibi @782
    _ZN4Jack8JackPort10GetAliasesEPKPc @783
    _ZN4Jack8JackPort10MixBuffersEPPvij @784
    _ZN4Jack8JackPort10NameEqualsEPKc @785
    _ZN4Jack8JackPort10SetLatencyEj @786
    _ZN4Jack8JackPort10UnsetAliasEPKc @787
    _ZN4Jack8JackPort11ClearBufferEj @788
    _ZN4Jack8JackPort13EnsureMonitorEb @789
    _ZN4Jack8JackPort14RequestMonitorEb @790
    _ZN4Jack8JackPort15SetLatencyRangeE23JackLatencyCallbackModeP19_jack_latency_range @791
    _ZN4Jack8JackPort3TieEj @792
    _ZN4Jack8JackPort5UnTieEv @793
    _ZN4Jack8JackPort7ReleaseEv @794
    _ZN4Jack8JackPort7SetNameEPKc @795
    _ZN4Jack8JackPort8AllocateEiPKcS2_13JackPortFlags @796
    _ZN4Jack8JackPort8SetAliasEPKc @797
    _ZN4Jack8JackPort9GetBufferEv @798
    _ZN4Jack8JackPortC1Ev @799
    _ZN4Jack8JackPortC2Ev @800
    _ZN4Jack9JackMMCSS11ffMMCSSFun1E @801 DATA
    _ZN4Jack9JackMMCSS11ffMMCSSFun2E @802 DATA
    _ZN4Jack9JackMMCSS11ffMMCSSFun3E @803 DATA
    _ZN4Jack9JackMMCSS12fHandleTableE @804 DATA
    _ZN4Jack9JackMMCSS17MMCSSDropRealTimeEPv @805
    _ZN4Jack9JackMMCSS20MMCSSAcquireRealTimeEPvi @806
    _ZN4Jack9JackMMCSS8fAvrtDllE @807 DATA
    _ZN4Jack9JackMMCSSC1Ev @808
    _ZN4Jack9JackMMCSSC2Ev @809
    _ZN4Jack9JackMMCSSD1Ev @810
    _ZN4Jack9JackMMCSSD2Ev @811
    _ZN4Jack9JackTimer11Frames2TimeEjj @812
    _ZN4Jack9JackTimer11Time2FramesEyj @813
    _ZN4Jack9JackTimer13GetCycleTimesEPjPyS2_Pf @814
    _ZN4Jack9JackTimer21FramesSinceCycleStartEyj @815
    _ZN4Jack9JackTimerC1Ev @816
    _ZN4Jack9JackTimerC2Ev @817
    _ZN4Jack9JackTools10KillServerEv @818
    _ZN4Jack9JackTools11RewriteNameEPKcPc @819
    _ZN4Jack9JackTools12CleanupFilesEPKc @820
    _ZN4Jack9JackTools17DefaultServerNameEv @821
    _ZN4Jack9JackTools19ComputationMicroSecEi @822
    _ZN4Jack9JackTools21ThrowJackNetExceptionEv @823
    _ZN4Jack9JackTools5MkDirEPKc @824
    _ZN4Jack9JackTools6GetPIDEv @825
    _ZN4Jack9JackTools6GetUIDEv @826
    _ZN4Jack9JackTools7UserDirEv @827
    _ZN4Jack9JackTools9GetTmpdirEv @828
    _ZN4Jack9JackTools9ServerDirEPKcPc @829
    _ZNK4Jack10JackDriver10IsRealTimeEv @830
    _ZNK4Jack10JackDriver16GetClientControlEv @831
    _ZNK4Jack10JackDriver9IsRunningEv @832
    _ZNK4Jack14JackMidiBuffer12MaxEventSizeEv @833
    _ZNK4Jack18JackThreadedDriver10IsRealTimeEv @834
    _ZNK4Jack18JackThreadedDriver16GetClientControlEv @835
    _ZNK4Jack18JackThreadedDriver9IsRunningEv @836
    _ZNK4Jack19JackTransportEngine8GetStateEv @837
    _ZNK4Jack21JackConnectionManager10IsLoopPathEjj @838
    _ZNK4Jack21JackConnectionManager11ConnectionsEj @839
    _ZNK4Jack21JackConnectionManager11IsConnectedEjj @840
    _ZNK4Jack21JackConnectionManager13GetActivationEi @841
    _ZNK4Jack21JackConnectionManager13IsLoopPathAuxEii @842
    _ZNK4Jack21JackConnectionManager14GetConnectionsEj @843
    _ZNK4Jack21JackConnectionManager14GetInputRefNumEj @844
    _ZNK4Jack21JackConnectionManager15GetOutputRefNumEj @845
    _ZNK4Jack21JackConnectionManager18IsDirectConnectionEii @846
    _ZNK4Jack21JackConnectionManager20IsFeedbackConnectionEjj @847
    _ZNK4Jack21JackConnectionManager7GetPortEji @848
    _ZNK4Jack8JackPort10GetLatencyEv @849
    _ZNK4Jack8JackPort12GetShortNameEv @850
    _ZNK4Jack8JackPort15GetLatencyRangeE23JackLatencyCallbackModeP19_jack_latency_range @851
    _ZNK4Jack8JackPort15GetTotalLatencyEv @852
    _ZNK4Jack8JackPort7GetNameEv @853
    _ZNK4Jack8JackPort7GetTypeEv @854
    _ZNK4Jack8JackPort8GetFlagsEv @855
    _ZNK4Jack8JackPort9GetRefNumEv @856
    _ZTVN4Jack10JackClientE @857 DATA
    _ZTVN4Jack10JackDriverE @858 DATA
    _ZTVN4Jack12JackWinMutexE @859 DATA
    _ZTVN4Jack13JackExceptionE @860 DATA
    _ZTVN4Jack14JackMidiDriverE @861 DATA
    _ZTVN4Jack14NetAudioBufferE @862 DATA
    _ZTVN4Jack15JackAudioDriverE @863 DATA
    _ZTVN4Jack15JackTimedDriverE @864 DATA
    _ZTVN4Jack16JackBaseWinMutexE @865 DATA
    _ZTVN4Jack16JackNetExceptionE @866 DATA
    _ZTVN4Jack16JackNetInterfaceE @867 DATA
    _ZTVN4Jack16JackWaiterDriverE @868 DATA
    _ZTVN4Jack17JackMidiReadQueueE @869 DATA
    _ZTVN4Jack17JackQuitExceptionE @870 DATA
    _ZTVN4Jack17NetIntAudioBufferE @871 DATA
    _ZTVN4Jack18JackMidiAsyncQueueE @872 DATA
    _ZTVN4Jack18JackMidiWriteQueueE @873 DATA
    _ZTVN4Jack18JackThreadedDriverE @874 DATA
    _ZTVN4Jack19JackClientInterfaceE @875 DATA
    _ZTVN4Jack19JackDriverInterfaceE @876 DATA
    _ZTVN4Jack19JackRestarterDriverE @877 DATA
    _ZTVN4Jack19NetFloatAudioBufferE @878 DATA
    _ZTVN4Jack21JackNetSlaveInterfaceE @879 DATA
    _ZTVN4Jack22JackNetMasterInterfaceE @880 DATA
    _ZTVN4Jack22JackTemporaryExceptionE @881 DATA
    _ZTVN4Jack22JackWaitThreadedDriverE @882 DATA
    _ZTVN4Jack22JackWinCriticalSectionE @883 DATA
    _ZTVN4Jack23JackMidiBufferReadQueueE @884 DATA
    _ZTVN4Jack24JackMidiBufferWriteQueueE @885 DATA
    _ZTVN4Jack25JackDriverClientInterfaceE @886 DATA
    _ZTVN4Jack25JackRestartThreadedDriverE @887 DATA
    _ZThn16_N4Jack18JackThreadedDriver4InitEv @888
    _ZThn16_N4Jack18JackThreadedDriver7ExecuteEv @889
    _ZThn16_N4Jack18JackThreadedDriverD0Ev @890
    _ZThn16_N4Jack18JackThreadedDriverD1Ev @891
    _ZThn16_N4Jack22JackWaitThreadedDriver4InitEv @892
    _ZThn16_N4Jack22JackWaitThreadedDriver7ExecuteEv @893
    _ZThn16_N4Jack22JackWaitThreadedDriverD0Ev @894
    _ZThn16_N4Jack22JackWaitThreadedDriverD1Ev @895
    _ZThn16_N4Jack25JackRestartThreadedDriver7ExecuteEv @896
    _ZThn16_N4Jack25JackRestartThreadedDriverD0Ev @897
    _ZThn16_N4Jack25JackRestartThreadedDriverD1Ev @898
    _ZThn8_N4Jack10JackClient4InitEv @899
    _ZThn8_N4Jack10JackClient7ExecuteEv @900
    _ZThn8_N4Jack10JackClientD0Ev @901
    _ZThn8_N4Jack10JackClientD1Ev @902
    _ZThn8_N4Jack10JackDriver12ClientNotifyEiPKciiS2_ii @903
    _ZThn8_N4Jack10JackDriver5CloseEv @904
    _ZThn8_N4Jack10JackDriverD0Ev @905
    _ZThn8_N4Jack10JackDriverD1Ev @906
    _ZThn8_N4Jack14JackMidiDriverD0Ev @907
    _ZThn8_N4Jack14JackMidiDriverD1Ev @908
    _ZThn8_N4Jack15JackAudioDriver12ClientNotifyEiPKciiS2_ii @909
    _ZThn8_N4Jack15JackAudioDriverD0Ev @910
    _ZThn8_N4Jack15JackAudioDriverD1Ev @911
    _ZThn8_N4Jack15JackTimedDriverD0Ev @912
    _ZThn8_N4Jack15JackTimedDriverD1Ev @913
    _ZThn8_N4Jack16JackWaiterDriverD0Ev @914
    _ZThn8_N4Jack16JackWaiterDriverD1Ev @915
    _ZThn8_N4Jack18JackMidiAsyncQueue12EnqueueEventEjyPh @916
    _ZThn8_N4Jack18JackMidiAsyncQueueD0Ev @917
    _ZThn8_N4Jack18JackMidiAsyncQueueD1Ev @918
    _ZThn8_N4Jack18JackThreadedDriver12ClientNotifyEiPKciiS2_ii @919
    _ZThn8_N4Jack18JackThreadedDriver5CloseEv @920
    _ZThn8_N4Jack18JackThreadedDriverD0Ev @921
    _ZThn8_N4Jack18JackThreadedDriverD1Ev @922
    _ZThn8_N4Jack19JackRestarterDriverD0Ev @923
    _ZThn8_N4Jack19JackRestarterDriverD1Ev @924
    _ZThn8_N4Jack22JackWaitThreadedDriverD0Ev @925
    _ZThn8_N4Jack22JackWaitThreadedDriverD1Ev @926
    _ZThn8_N4Jack25JackDriverClientInterfaceD0Ev @927
    _ZThn8_N4Jack25JackDriverClientInterfaceD1Ev @928
    _ZThn8_N4Jack25JackRestartThreadedDriverD0Ev @929
    _ZThn8_N4Jack25JackRestartThreadedDriverD1Ev @930
    _ZThn8_NK4Jack10JackDriver16GetClientControlEv @931
    _ZThn8_NK4Jack18JackThreadedDriver16GetClientControlEv @932
    default_jack_error_callback @933
    default_jack_info_callback @934
    driver_get_descriptor @935
    driver_initialize @936
    jack_acquire_real_time_scheduling @937
    jack_activate @938
    jack_client_close @939
    jack_client_create_thread @940
    jack_client_get_uuid @941
    jack_client_has_session_callback @942
    jack_client_kill_thread @943
    jack_client_max_real_time_priority @944
    jack_client_name_size @945
    jack_client_new @946
    jack_client_open @947
    jack_client_real_time_priority @948
    jack_client_stop_thread @949
    jack_client_thread_id @950
    jack_client_uuid_generate @951
    jack_connect @952
    jack_constraint_add_enum @953
    jack_constraint_compose_enum_char @954
    jack_constraint_compose_enum_sint32 @955
    jack_constraint_compose_enum_str @956
    jack_constraint_compose_enum_uint32 @957
    jack_constraint_free @958
    jack_cpu_load @959
    jack_cycle_signal @960
    jack_cycle_wait @961
    jack_deactivate @962
    jack_disconnect @963
    jack_driver_descriptor_add_parameter @964
    jack_driver_descriptor_construct @965
    jack_drop_real_time_scheduling @966
    jack_engine_takeover_timebase @967
    jack_error @968
    jack_error_callback @969 DATA
    jack_frame_time @970
    jack_frames_since_cycle_start @971
    jack_frames_to_time @972
    jack_free @973
    jack_free_description @974
    jack_get_all_properties @975
    jack_get_buffer_size @976
    jack_get_client_name @977
    jack_get_client_name_by_uuid @978
    jack_get_client_pid @979
    jack_get_current_transport_frame @980
    jack_get_cycle_times @981
    jack_get_internal_client_name @982
    jack_get_max_delayed_usecs @983
    jack_get_ports @984
    jack_get_properties @985
    jack_get_property @986
    jack_get_sample_rate @987
    jack_get_time @988
    jack_get_transport_info @989
    jack_get_uuid_for_client_name @990
    jack_get_version @991
    jack_get_version_string @992
    jack_get_xrun_delayed_usecs @993
    jack_info @994
    jack_info_callback @995 DATA
    jack_internal_client_close @996
    jack_internal_client_handle @997
    jack_internal_client_load @998
    jack_internal_client_new @999
    jack_internal_client_unload @1000
    jack_is_realtime @1001
    jack_last_frame_time @1002
    jack_log @1003
    jack_midi_clear_buffer @1004
    jack_midi_event_get @1005
    jack_midi_event_reserve @1006
    jack_midi_event_write @1007
    jack_midi_get_event_count @1008
    jack_midi_get_lost_event_count @1009
    jack_midi_max_event_size @1010
    jack_midi_reset_buffer @1011
    jack_on_info_shutdown @1012
    jack_on_shutdown @1013
    jack_port_by_id @1014
    jack_port_by_name @1015
    jack_port_connected @1016
    jack_port_connected_to @1017
    jack_port_disconnect @1018
    jack_port_ensure_monitor @1019
    jack_port_flags @1020
    jack_port_get_aliases @1021
    jack_port_get_all_connections @1022
    jack_port_get_buffer @1023
    jack_port_get_connections @1024
    jack_port_get_latency @1025
    jack_port_get_latency_range @1026
    jack_port_get_total_latency @1027
    jack_port_is_mine @1028
    jack_port_monitoring_input @1029
    jack_port_name @1030
    jack_port_name_size @1031
    jack_port_register @1032
    jack_port_rename @1033
    jack_port_request_monitor @1034
    jack_port_request_monitor_by_name @1035
    jack_port_set_alias @1036
    jack_port_set_latency @1037
    jack_port_set_latency_range @1038
    jack_port_set_name @1039
    jack_port_short_name @1040
    jack_port_tie @1041
    jack_port_type @1042
    jack_port_type_get_buffer_size @1043
    jack_port_type_id @1044
    jack_port_type_size @1045
    jack_port_unregister @1046
    jack_port_unset_alias @1047
    jack_port_untie @1048
    jack_port_uuid @1049
    jack_port_uuid_generate @1050
    jack_recompute_total_latencies @1051
    jack_recompute_total_latency @1052
    jack_release_timebase @1053
    jack_remove_all_properties @1054
    jack_remove_properties @1055
    jack_remove_property @1056
    jack_reserve_client_name @1057
    jack_reset_max_delayed_usecs @1058
    jack_ringbuffer_create @1059
    jack_ringbuffer_free @1060
    jack_ringbuffer_get_read_vector @1061
    jack_ringbuffer_get_write_vector @1062
    jack_ringbuffer_mlock @1063
    jack_ringbuffer_peek @1064
    jack_ringbuffer_read @1065
    jack_ringbuffer_read_advance @1066
    jack_ringbuffer_read_space @1067
    jack_ringbuffer_reset @1068
    jack_ringbuffer_reset_size @1069
    jack_ringbuffer_write @1070
    jack_ringbuffer_write_advance @1071
    jack_ringbuffer_write_space @1072
    jack_session_commands_free @1073
    jack_session_event_free @1074
    jack_session_notify @1075
    jack_session_reply @1076
    jack_set_buffer_size @1077
    jack_set_buffer_size_callback @1078
    jack_set_client_registration_callback @1079
    jack_set_error_function @1080
    jack_set_freewheel @1081
    jack_set_freewheel_callback @1082
    jack_set_graph_order_callback @1083
    jack_set_info_function @1084
    jack_set_latency_callback @1085
    jack_set_port_connect_callback @1086
    jack_set_port_registration_callback @1087
    jack_set_port_rename_callback @1088
    jack_set_process_callback @1089
    jack_set_process_thread @1090
    jack_set_property @1091
    jack_set_property_change_callback @1092
    jack_set_sample_rate_callback @1093
    jack_set_session_callback @1094
    jack_set_sync_callback @1095
    jack_set_sync_timeout @1096
    jack_set_thread_init_callback @1097
    jack_set_timebase_callback @1098
    jack_set_transport_info @1099
    jack_set_xrun_callback @1100
    jack_thread_wait @1101
    jack_time_to_frames @1102
    jack_transport_locate @1103
    jack_transport_query @1104
    jack_transport_reposition @1105
    jack_transport_start @1106
    jack_transport_stop @1107
    jack_uuid_clear @1108
    jack_uuid_compare @1109
    jack_uuid_copy @1110
    jack_uuid_empty @1111
    jack_uuid_parse @1112
    jack_uuid_to_index @1113
    jack_uuid_unparse @1114
    jackctl_driver_get_name @1115
    jackctl_driver_get_parameters @1116
    jackctl_driver_get_type @1117
    jackctl_driver_params_parse @1118
    jackctl_internal_get_name @1119
    jackctl_internal_get_parameters @1120
    jackctl_parameter_constraint_is_fake_value @1121
    jackctl_parameter_constraint_is_strict @1122
    jackctl_parameter_get_default_value @1123
    jackctl_parameter_get_enum_constraint_description @1124
    jackctl_parameter_get_enum_constraint_value @1125
    jackctl_parameter_get_enum_constraints_count @1126
    jackctl_parameter_get_id @1127
    jackctl_parameter_get_long_description @1128
    jackctl_parameter_get_name @1129
    jackctl_parameter_get_range_constraint @1130
    jackctl_parameter_get_short_description @1131
    jackctl_parameter_get_type @1132
    jackctl_parameter_get_value @1133
    jackctl_parameter_has_enum_constraint @1134
    jackctl_parameter_has_range_constraint @1135
    jackctl_parameter_is_set @1136
    jackctl_parameter_reset @1137
    jackctl_parameter_set_value @1138
    jackctl_server_add_slave @1139
    jackctl_server_close @1140
    jackctl_server_create @1141
    jackctl_server_destroy @1142
    jackctl_server_get_drivers_list @1143
    jackctl_server_get_internals_list @1144
    jackctl_server_get_parameters @1145
    jackctl_server_load_internal @1146
    jackctl_server_open @1147
    jackctl_server_remove_slave @1148
    jackctl_server_start @1149
    jackctl_server_stop @1150
    jackctl_server_switch_master @1151
    jackctl_server_unload_internal @1152
    jackctl_setup_signals @1153
    jackctl_wait_signals @1154
    set_threaded_log_function @1155
    silent_jack_error_callback @1156
    silent_jack_info_callback @1157
